target datalayout = "e-m:e-p270:32:32-p271:32:32-p272:64:64-i64:64-i128:128-f80:128-n8:16:32:64-S128"
target triple = "x86_64-pc-linux-gnu"

%struct._zend_op_array = type { i8, [3 x i8], i32, ptr, ptr, ptr, i32, i32, ptr, ptr, ptr, ptr, i32, ptr, i32, i32, i32, ptr, ptr, ptr, ptr, ptr, i32, i32, ptr, ptr, ptr, i32, i32, i32, i32, ptr, ptr, [6 x ptr] }
%struct._zend_optimizer_ctx = type { ptr, ptr, ptr, i64, i64 }
%struct._zend_ssa = type { %struct._zend_cfg, i32, i32, ptr, ptr, ptr, ptr }
%struct._zend_cfg = type { i32, i32, ptr, ptr, ptr, i32 }

@.str = private unnamed_addr constant [8 x i8] c"dfa cfg\00", align 1
@.str.1 = private unnamed_addr constant [8 x i8] c"dfa ssa\00", align 1

; Function Attrs: nounwind uwtable
define hidden i32 @zend_dfa_analyze_op_array(ptr noundef %0, ptr noundef %1, ptr noundef %2) #0 {
  %4 = alloca i32, align 4
  %5 = alloca ptr, align 8
  %6 = alloca ptr, align 8
  %7 = alloca ptr, align 8
  %8 = alloca i32, align 4
  %9 = alloca i32, align 4
  store ptr %0, ptr %5, align 8, !tbaa !4
  store ptr %1, ptr %6, align 8, !tbaa !9
  store ptr %2, ptr %7, align 8, !tbaa !11
  call void @llvm.lifetime.start.p0(i64 4, ptr %8) #13
  %10 = load ptr, ptr %5, align 8, !tbaa !4
  %11 = getelementptr inbounds nuw %struct._zend_op_array, ptr %10, i32 0, i32 23
  %12 = load i32, ptr %11, align 4, !tbaa !13
  %13 = icmp ne i32 %12, 0
  br i1 %13, label %14, label %15

14:                                               ; preds = %3
  store i32 -1, ptr %4, align 4
  store i32 1, ptr %9, align 4
  br label %139

15:                                               ; preds = %3
  %16 = load ptr, ptr %7, align 8, !tbaa !11
  call void @llvm.memset.p0.i64(ptr align 8 %16, i8 0, i64 80, i1 false)
  %17 = load ptr, ptr %6, align 8, !tbaa !9
  %18 = getelementptr inbounds nuw %struct._zend_optimizer_ctx, ptr %17, i32 0, i32 0
  %19 = load ptr, ptr %5, align 8, !tbaa !4
  %20 = load ptr, ptr %7, align 8, !tbaa !11
  %21 = getelementptr inbounds nuw %struct._zend_ssa, ptr %20, i32 0, i32 0
  call void @zend_build_cfg(ptr noundef %18, ptr noundef %19, i32 noundef 33554432, ptr noundef %21)
  %22 = load ptr, ptr %7, align 8, !tbaa !11
  %23 = getelementptr inbounds nuw %struct._zend_ssa, ptr %22, i32 0, i32 0
  %24 = getelementptr inbounds nuw %struct._zend_cfg, ptr %23, i32 0, i32 5
  %25 = load i32, ptr %24, align 8, !tbaa !29
  %26 = and i32 %25, 1
  %27 = icmp ne i32 %26, 0
  br i1 %27, label %28, label %29

28:                                               ; preds = %15
  store i32 -1, ptr %4, align 4
  store i32 1, ptr %9, align 4
  br label %139

29:                                               ; preds = %15
  %30 = load ptr, ptr %6, align 8, !tbaa !9
  %31 = getelementptr inbounds nuw %struct._zend_optimizer_ctx, ptr %30, i32 0, i32 0
  %32 = load ptr, ptr %7, align 8, !tbaa !11
  %33 = getelementptr inbounds nuw %struct._zend_ssa, ptr %32, i32 0, i32 0
  call void @zend_cfg_build_predecessors(ptr noundef %31, ptr noundef %33)
  %34 = load ptr, ptr %6, align 8, !tbaa !9
  %35 = getelementptr inbounds nuw %struct._zend_optimizer_ctx, ptr %34, i32 0, i32 4
  %36 = load i64, ptr %35, align 8, !tbaa !37
  %37 = and i64 %36, 8388608
  %38 = icmp ne i64 %37, 0
  br i1 %38, label %39, label %43

39:                                               ; preds = %29
  %40 = load ptr, ptr %5, align 8, !tbaa !4
  %41 = load ptr, ptr %7, align 8, !tbaa !11
  %42 = getelementptr inbounds nuw %struct._zend_ssa, ptr %41, i32 0, i32 0
  call void @zend_dump_op_array(ptr noundef %40, i32 noundef 4, ptr noundef @.str, ptr noundef %42)
  br label %43

43:                                               ; preds = %39, %29
  %44 = load ptr, ptr %5, align 8, !tbaa !4
  %45 = load ptr, ptr %7, align 8, !tbaa !11
  %46 = getelementptr inbounds nuw %struct._zend_ssa, ptr %45, i32 0, i32 0
  call void @zend_cfg_compute_dominators_tree(ptr noundef %44, ptr noundef %46)
  %47 = load ptr, ptr %5, align 8, !tbaa !4
  %48 = load ptr, ptr %7, align 8, !tbaa !11
  %49 = getelementptr inbounds nuw %struct._zend_ssa, ptr %48, i32 0, i32 0
  call void @zend_cfg_identify_loops(ptr noundef %47, ptr noundef %49)
  %50 = load ptr, ptr %6, align 8, !tbaa !9
  %51 = getelementptr inbounds nuw %struct._zend_optimizer_ctx, ptr %50, i32 0, i32 4
  %52 = load i64, ptr %51, align 8, !tbaa !37
  %53 = and i64 %52, 16777216
  %54 = icmp ne i64 %53, 0
  br i1 %54, label %55, label %59

55:                                               ; preds = %43
  %56 = load ptr, ptr %5, align 8, !tbaa !4
  %57 = load ptr, ptr %7, align 8, !tbaa !11
  %58 = getelementptr inbounds nuw %struct._zend_ssa, ptr %57, i32 0, i32 0
  call void @zend_dump_dominators(ptr noundef %56, ptr noundef %58)
  br label %59

59:                                               ; preds = %55, %43
  store i32 0, ptr %8, align 4, !tbaa !42
  %60 = load ptr, ptr %6, align 8, !tbaa !9
  %61 = getelementptr inbounds nuw %struct._zend_optimizer_ctx, ptr %60, i32 0, i32 4
  %62 = load i64, ptr %61, align 8, !tbaa !37
  %63 = and i64 %62, 33554432
  %64 = icmp ne i64 %63, 0
  br i1 %64, label %65, label %68

65:                                               ; preds = %59
  %66 = load i32, ptr %8, align 4, !tbaa !42
  %67 = or i32 %66, 536870912
  store i32 %67, ptr %8, align 4, !tbaa !42
  br label %68

68:                                               ; preds = %65, %59
  %69 = load ptr, ptr %6, align 8, !tbaa !9
  %70 = getelementptr inbounds nuw %struct._zend_optimizer_ctx, ptr %69, i32 0, i32 4
  %71 = load i64, ptr %70, align 8, !tbaa !37
  %72 = and i64 %71, 67108864
  %73 = icmp ne i64 %72, 0
  br i1 %73, label %74, label %77

74:                                               ; preds = %68
  %75 = load i32, ptr %8, align 4, !tbaa !42
  %76 = or i32 %75, 268435456
  store i32 %76, ptr %8, align 4, !tbaa !42
  br label %77

77:                                               ; preds = %74, %68
  %78 = load ptr, ptr %6, align 8, !tbaa !9
  %79 = getelementptr inbounds nuw %struct._zend_optimizer_ctx, ptr %78, i32 0, i32 0
  %80 = load ptr, ptr %6, align 8, !tbaa !9
  %81 = getelementptr inbounds nuw %struct._zend_optimizer_ctx, ptr %80, i32 0, i32 1
  %82 = load ptr, ptr %81, align 8, !tbaa !43
  %83 = load ptr, ptr %5, align 8, !tbaa !4
  %84 = load i32, ptr %8, align 4, !tbaa !42
  %85 = load ptr, ptr %7, align 8, !tbaa !11
  %86 = call i32 @zend_build_ssa(ptr noundef %79, ptr noundef %82, ptr noundef %83, i32 noundef %84, ptr noundef %85)
  %87 = icmp eq i32 %86, -1
  br i1 %87, label %88, label %89

88:                                               ; preds = %77
  store i32 -1, ptr %4, align 4
  store i32 1, ptr %9, align 4
  br label %139

89:                                               ; preds = %77
  %90 = load ptr, ptr %6, align 8, !tbaa !9
  %91 = getelementptr inbounds nuw %struct._zend_optimizer_ctx, ptr %90, i32 0, i32 4
  %92 = load i64, ptr %91, align 8, !tbaa !37
  %93 = and i64 %92, 134217728
  %94 = icmp ne i64 %93, 0
  br i1 %94, label %95, label %98

95:                                               ; preds = %89
  %96 = load ptr, ptr %5, align 8, !tbaa !4
  %97 = load ptr, ptr %7, align 8, !tbaa !11
  call void @zend_dump_op_array(ptr noundef %96, i32 noundef 8, ptr noundef @.str.1, ptr noundef %97)
  br label %98

98:                                               ; preds = %95, %89
  %99 = load ptr, ptr %6, align 8, !tbaa !9
  %100 = getelementptr inbounds nuw %struct._zend_optimizer_ctx, ptr %99, i32 0, i32 0
  %101 = load ptr, ptr %5, align 8, !tbaa !4
  %102 = load ptr, ptr %7, align 8, !tbaa !11
  call void @zend_ssa_compute_use_def_chains(ptr noundef %100, ptr noundef %101, ptr noundef %102)
  %103 = load ptr, ptr %5, align 8, !tbaa !4
  %104 = load ptr, ptr %7, align 8, !tbaa !11
  call void @zend_ssa_find_false_dependencies(ptr noundef %103, ptr noundef %104)
  %105 = load ptr, ptr %5, align 8, !tbaa !4
  %106 = load ptr, ptr %7, align 8, !tbaa !11
  call void @zend_ssa_find_sccs(ptr noundef %105, ptr noundef %106)
  %107 = load ptr, ptr %6, align 8, !tbaa !9
  %108 = getelementptr inbounds nuw %struct._zend_optimizer_ctx, ptr %107, i32 0, i32 0
  %109 = load ptr, ptr %5, align 8, !tbaa !4
  %110 = load ptr, ptr %6, align 8, !tbaa !9
  %111 = getelementptr inbounds nuw %struct._zend_optimizer_ctx, ptr %110, i32 0, i32 1
  %112 = load ptr, ptr %111, align 8, !tbaa !43
  %113 = load ptr, ptr %7, align 8, !tbaa !11
  %114 = load ptr, ptr %6, align 8, !tbaa !9
  %115 = getelementptr inbounds nuw %struct._zend_optimizer_ctx, ptr %114, i32 0, i32 3
  %116 = load i64, ptr %115, align 8, !tbaa !44
  %117 = call i32 @zend_ssa_inference(ptr noundef %108, ptr noundef %109, ptr noundef %112, ptr noundef %113, i64 noundef %116)
  %118 = icmp eq i32 %117, -1
  br i1 %118, label %119, label %120

119:                                              ; preds = %98
  store i32 -1, ptr %4, align 4
  store i32 1, ptr %9, align 4
  br label %139

120:                                              ; preds = %98
  %121 = load ptr, ptr %6, align 8, !tbaa !9
  %122 = getelementptr inbounds nuw %struct._zend_optimizer_ctx, ptr %121, i32 0, i32 1
  %123 = load ptr, ptr %122, align 8, !tbaa !43
  %124 = load ptr, ptr %5, align 8, !tbaa !4
  %125 = load ptr, ptr %7, align 8, !tbaa !11
  %126 = call i32 @zend_ssa_escape_analysis(ptr noundef %123, ptr noundef %124, ptr noundef %125)
  %127 = icmp eq i32 %126, -1
  br i1 %127, label %128, label %129

128:                                              ; preds = %120
  store i32 -1, ptr %4, align 4
  store i32 1, ptr %9, align 4
  br label %139

129:                                              ; preds = %120
  %130 = load ptr, ptr %6, align 8, !tbaa !9
  %131 = getelementptr inbounds nuw %struct._zend_optimizer_ctx, ptr %130, i32 0, i32 4
  %132 = load i64, ptr %131, align 8, !tbaa !37
  %133 = and i64 %132, 268435456
  %134 = icmp ne i64 %133, 0
  br i1 %134, label %135, label %138

135:                                              ; preds = %129
  %136 = load ptr, ptr %5, align 8, !tbaa !4
  %137 = load ptr, ptr %7, align 8, !tbaa !11
  call void @zend_dump_ssa_variables(ptr noundef %136, ptr noundef %137, i32 noundef 0)
  br label %138

138:                                              ; preds = %135, %129
  store i32 0, ptr %4, align 4
  store i32 1, ptr %9, align 4
  br label %139

139:                                              ; preds = %138, %128, %119, %88, %28, %14
  call void @llvm.lifetime.end.p0(i64 4, ptr %8) #13
  %140 = load i32, ptr %4, align 4
  ret i32 %140
}