; Function Attrs: nounwind uwtable
define hidden range(i32 -1, 1) i32 @zend_dfa_analyze_op_array(ptr noundef %0, ptr noundef %1, ptr noundef %2) local_unnamed_addr #0 {
  %4 = getelementptr inbounds nuw i8, ptr %0, i64 148
  %5 = load i32, ptr %4, align 4, !tbaa !4
  %.not = icmp eq i32 %5, 0
  br i1 %.not, label %6, label %47

6:                                                ; preds = %3
  tail call void @llvm.memset.p0.i64(ptr noundef nonnull align 8 dereferenceable(80) %2, i8 0, i64 80, i1 false)
  tail call void @zend_build_cfg(ptr noundef %1, ptr noundef nonnull %0, i32 noundef 33554432, ptr noundef nonnull %2) #12
  %7 = getelementptr inbounds nuw i8, ptr %2, i64 32
  %8 = load i32, ptr %7, align 8, !tbaa !23
  %9 = and i32 %8, 1
  %.not49 = icmp eq i32 %9, 0
  br i1 %.not49, label %10, label %47

10:                                               ; preds = %6
  tail call void @zend_cfg_build_predecessors(ptr noundef %1, ptr noundef nonnull %2) #12
  %11 = getelementptr inbounds nuw i8, ptr %1, i64 32
  %12 = load i64, ptr %11, align 8, !tbaa !31
  %13 = and i64 %12, 8388608
  %.not50 = icmp eq i64 %13, 0
  br i1 %.not50, label %15, label %14

14:                                               ; preds = %10
  tail call void @zend_dump_op_array(ptr noundef nonnull %0, i32 noundef 4, ptr noundef nonnull @.str, ptr noundef nonnull %2) #12
  br label %15

15:                                               ; preds = %14, %10
  tail call void @zend_cfg_compute_dominators_tree(ptr noundef nonnull %0, ptr noundef nonnull %2) #12
  tail call void @zend_cfg_identify_loops(ptr noundef nonnull %0, ptr noundef nonnull %2) #12
  %16 = load i64, ptr %11, align 8, !tbaa !31
  %17 = and i64 %16, 16777216
  %.not51 = icmp eq i64 %17, 0
  br i1 %.not51, label %19, label %18

18:                                               ; preds = %15
  tail call void @zend_dump_dominators(ptr noundef nonnull %0, ptr noundef nonnull %2) #12
  %.pre = load i64, ptr %11, align 8, !tbaa !31
  br label %19

19:                                               ; preds = %18, %15
  %20 = phi i64 [ %.pre, %18 ], [ %16, %15 ]
  %21 = trunc i64 %20 to i32
  %22 = shl i32 %21, 4
  %spec.select = and i32 %22, 536870912
  %23 = shl i32 %21, 2
  %24 = and i32 %23, 268435456
  %.1 = or disjoint i32 %spec.select, %24
  %25 = getelementptr inbounds nuw i8, ptr %1, i64 8
  %26 = load ptr, ptr %25, align 8, !tbaa !36
  %27 = tail call i32 @zend_build_ssa(ptr noundef nonnull %1, ptr noundef %26, ptr noundef nonnull %0, i32 noundef %.1, ptr noundef nonnull %2) #12
  %28 = icmp eq i32 %27, -1
  br i1 %28, label %47, label %29

29:                                               ; preds = %19
  %30 = load i64, ptr %11, align 8, !tbaa !31
  %31 = and i64 %30, 134217728
  %.not54 = icmp eq i64 %31, 0
  br i1 %.not54, label %33, label %32

32:                                               ; preds = %29
  tail call void @zend_dump_op_array(ptr noundef nonnull %0, i32 noundef 8, ptr noundef nonnull @.str.1, ptr noundef nonnull %2) #12
  br label %33

33:                                               ; preds = %32, %29
  tail call void @zend_ssa_compute_use_def_chains(ptr noundef nonnull %1, ptr noundef nonnull %0, ptr noundef nonnull %2) #12
  tail call void @zend_ssa_find_false_dependencies(ptr noundef nonnull %0, ptr noundef nonnull %2) #12
  tail call void @zend_ssa_find_sccs(ptr noundef nonnull %0, ptr noundef nonnull %2) #12
  %34 = load ptr, ptr %25, align 8, !tbaa !36
  %35 = getelementptr inbounds nuw i8, ptr %1, i64 24
  %36 = load i64, ptr %35, align 8, !tbaa !37
  %37 = tail call i32 @zend_ssa_inference(ptr noundef nonnull %1, ptr noundef nonnull %0, ptr noundef %34, ptr noundef nonnull %2, i64 noundef %36) #12
  %38 = icmp eq i32 %37, -1
  br i1 %38, label %47, label %39

39:                                               ; preds = %33
  %40 = load ptr, ptr %25, align 8, !tbaa !36
  %41 = tail call i32 @zend_ssa_escape_analysis(ptr noundef %40, ptr noundef nonnull %0, ptr noundef nonnull %2) #12
  %42 = icmp eq i32 %41, -1
  br i1 %42, label %47, label %43

43:                                               ; preds = %39
  %44 = load i64, ptr %11, align 8, !tbaa !31
  %45 = and i64 %44, 268435456
  %.not55 = icmp eq i64 %45, 0
  br i1 %.not55, label %47, label %46

46:                                               ; preds = %43
  tail call void @zend_dump_ssa_variables(ptr noundef nonnull %0, ptr noundef nonnull %2, i32 noundef 0) #12
  br label %47

47:                                               ; preds = %43, %46, %39, %33, %19, %6, %3
  %.048 = phi i32 [ -1, %3 ], [ -1, %6 ], [ -1, %19 ], [ -1, %33 ], [ -1, %39 ], [ 0, %46 ], [ 0, %43 ]
  ret i32 %.048
}